; ModuleID = '33/168.c'
source_filename = "33/168.c"
target datalayout = "e-m:e-p270:32:32-p271:32:32-p272:64:64-i64:64-f80:128-n8:16:32:64-S128"
target triple = "x86_64-pc-linux-gnu"

@.str = private unnamed_addr constant [3 x i8] c"%d\00", align 1
@a = common dso_local global [10000 x [256 x i8]] zeroinitializer, align 16
@.str.1 = private unnamed_addr constant [3 x i8] c"%c\00", align 1
@.str.2 = private unnamed_addr constant [2 x i8] c"\0A\00", align 1

; Function Attrs: noinline nounwind uwtable
define dso_local void @main() #0 {
  %1 = alloca i32, align 4
  %2 = alloca i32, align 4
  %3 = alloca i32, align 4
  %4 = alloca [256 x i8], align 16
  %5 = getelementptr inbounds [256 x i8], [256 x i8]* %4, i64 0, i64 65
  store i8 84, i8* %5, align 1
  %6 = getelementptr inbounds [256 x i8], [256 x i8]* %4, i64 0, i64 84
  store i8 65, i8* %6, align 4
  %7 = getelementptr inbounds [256 x i8], [256 x i8]* %4, i64 0, i64 67
  store i8 71, i8* %7, align 1
  %8 = getelementptr inbounds [256 x i8], [256 x i8]* %4, i64 0, i64 71
  store i8 67, i8* %8, align 1
  %9 = call i32 (i8*, ...) @__isoc99_scanf(i8* getelementptr inbounds ([3 x i8], [3 x i8]* @.str, i64 0, i64 0), i32* %1)
  store i32 0, i32* %2, align 4
  br label %10

10:                                               ; preds = %60, %0
  %11 = load i32, i32* %2, align 4
  %12 = load i32, i32* %1, align 4
  %13 = icmp sle i32 %11, %12
  br i1 %13, label %14, label %63

14:                                               ; preds = %10
  %15 = load i32, i32* %2, align 4
  %16 = sext i32 %15 to i64
  %17 = getelementptr inbounds [10000 x [256 x i8]], [10000 x [256 x i8]]* @a, i64 0, i64 %16
  %18 = getelementptr inbounds [256 x i8], [256 x i8]* %17, i64 0, i64 0
  %19 = call i32 (i8*, ...) bitcast (i32 (...)* @gets to i32 (i8*, ...)*)(i8* %18)
  store i32 0, i32* %3, align 4
  br label %20

20:                                               ; preds = %56, %14
  %21 = load i32, i32* %2, align 4
  %22 = sext i32 %21 to i64
  %23 = getelementptr inbounds [10000 x [256 x i8]], [10000 x [256 x i8]]* @a, i64 0, i64 %22
  %24 = load i32, i32* %3, align 4
  %25 = sext i32 %24 to i64
  %26 = getelementptr inbounds [256 x i8], [256 x i8]* %23, i64 0, i64 %25
  %27 = load i8, i8* %26, align 1
  %28 = sext i8 %27 to i32
  %29 = icmp ne i32 %28, 0
  br i1 %29, label %30, label %59

30:                                               ; preds = %20
  %31 = load i32, i32* %2, align 4
  %32 = sext i32 %31 to i64
  %33 = getelementptr inbounds [10000 x [256 x i8]], [10000 x [256 x i8]]* @a, i64 0, i64 %32
  %34 = load i32, i32* %3, align 4
  %35 = sext i32 %34 to i64
  %36 = getelementptr inbounds [256 x i8], [256 x i8]* %33, i64 0, i64 %35
  %37 = load i8, i8* %36, align 1
  %38 = sext i8 %37 to i64
  %39 = getelementptr inbounds [256 x i8], [256 x i8]* %4, i64 0, i64 %38
  %40 = load i8, i8* %39, align 1
  %41 = sext i8 %40 to i32
  %42 = call i32 (i8*, ...) @printf(i8* getelementptr inbounds ([3 x i8], [3 x i8]* @.str.1, i64 0, i64 0), i32 %41)
  %43 = load i32, i32* %2, align 4
  %44 = sext i32 %43 to i64
  %45 = getelementptr inbounds [10000 x [256 x i8]], [10000 x [256 x i8]]* @a, i64 0, i64 %44
  %46 = load i32, i32* %3, align 4
  %47 = add nsw i32 %46, 1
  %48 = sext i32 %47 to i64
  %49 = getelementptr inbounds [256 x i8], [256 x i8]* %45, i64 0, i64 %48
  %50 = load i8, i8* %49, align 1
  %51 = sext i8 %50 to i32
  %52 = icmp eq i32 %51, 0
  br i1 %52, label %53, label %55

53:                                               ; preds = %30
  %54 = call i32 (i8*, ...) @printf(i8* getelementptr inbounds ([2 x i8], [2 x i8]* @.str.2, i64 0, i64 0))
  br label %55

55:                                               ; preds = %53, %30
  br label %56

56:                                               ; preds = %55
  %57 = load i32, i32* %3, align 4
  %58 = add nsw i32 %57, 1
  store i32 %58, i32* %3, align 4
  br label %20

59:                                               ; preds = %20
  br label %60

60:                                               ; preds = %59
  %61 = load i32, i32* %2, align 4
  %62 = add nsw i32 %61, 1
  store i32 %62, i32* %2, align 4
  br label %10

63:                                               ; preds = %10
  ret void
}

declare dso_local i32 @__isoc99_scanf(i8*, ...) #1

declare dso_local i32 @gets(...) #1

declare dso_local i32 @printf(i8*, ...) #1


!llvm.module.flags = !{!0}
!llvm.ident = !{!1}

!0 = !{i32 1, !"wchar_size", i32 4}
!1 = !{!"clang version 10.0.0-4ubuntu1 "}
